target datalayout = "e-m:e-p270:32:32-p271:32:32-p272:64:64-i64:64-i128:128-f80:128-n8:16:32:64-S128"
target triple = "x86_64-pc-linux-gnu"

%"class.cv::tinyxml2::StrPair" = type { i32, ptr, ptr }
%"class.cv::tinyxml2::XMLNode" = type { ptr, ptr, ptr, %"class.cv::tinyxml2::StrPair", ptr, ptr, ptr, ptr, ptr }

; Function Attrs: mustprogress uwtable
define hidden void @_ZN2cv8tinyxml27XMLNode11DeleteChildEPS1_(ptr noundef nonnull align 8 dereferenceable(88) %0, ptr noundef %1) #3 align 2 {
  %3 = alloca ptr, align 8
  %4 = alloca ptr, align 8
  %5 = alloca ptr, align 8
  store ptr %0, ptr %3, align 8, !tbaa !55
  store ptr %1, ptr %4, align 8, !tbaa !55
  %6 = load ptr, ptr %4, align 8, !tbaa !55
  %7 = icmp ne ptr %6, null
  br i1 %7, label %8, label %21

8:                                                ; preds = %2
  call void @llvm.lifetime.start.p0(i64 8, ptr %5) #17
  %9 = load ptr, ptr %4, align 8, !tbaa !55
  %10 = getelementptr inbounds nuw %"class.cv::tinyxml2::XMLNode", ptr %9, i32 0, i32 8
  %11 = load ptr, ptr %10, align 8, !tbaa !57
  store ptr %11, ptr %5, align 8, !tbaa !119
  %12 = load ptr, ptr %4, align 8, !tbaa !55
  %13 = load ptr, ptr %12, align 8, !tbaa !92
  %14 = getelementptr inbounds ptr, ptr %13, i64 16
  %15 = load ptr, ptr %14, align 8
  call void %15(ptr noundef nonnull align 8 dereferenceable(88) %12) #17
  %16 = load ptr, ptr %5, align 8, !tbaa !119
  %17 = load ptr, ptr %4, align 8, !tbaa !55
  %18 = load ptr, ptr %16, align 8, !tbaa !92
  %19 = getelementptr inbounds ptr, ptr %18, i64 4
  %20 = load ptr, ptr %19, align 8
  call void %20(ptr noundef nonnull align 8 dereferenceable(8) %16, ptr noundef %17)
  call void @llvm.lifetime.end.p0(i64 8, ptr %5) #17
  br label %21

21:                                               ; preds = %8, %2
  ret void
}