; Function Attrs: mustprogress uwtable
define hidden void @_ZN2cv8tinyxml27XMLNode11DeleteChildEPS1_(ptr noundef nonnull readnone align 8 captures(none) dereferenceable(88) %0, ptr noundef %1) local_unnamed_addr #4 align 2 {
  %.not = icmp eq ptr %1, null
  br i1 %.not, label %12, label %3

3:                                                ; preds = %2
  %4 = getelementptr inbounds nuw i8, ptr %1, i64 80
  %5 = load ptr, ptr %4, align 8, !tbaa !41
  %6 = load ptr, ptr %1, align 8, !tbaa !39
  %7 = getelementptr inbounds nuw i8, ptr %6, i64 128
  %8 = load ptr, ptr %7, align 8
  tail call void %8(ptr noundef nonnull align 8 dereferenceable(88) %1) #24
  %9 = load ptr, ptr %5, align 8, !tbaa !39
  %10 = getelementptr inbounds nuw i8, ptr %9, i64 32
  %11 = load ptr, ptr %10, align 8
  tail call void %11(ptr noundef nonnull align 8 dereferenceable(8) %5, ptr noundef nonnull %1)
  br label %12

12:                                               ; preds = %3, %2
  ret void
}